target datalayout = "e-m:e-p270:32:32-p271:32:32-p272:64:64-i64:64-i128:128-f80:128-n8:16:32:64-S128"
target triple = "x86_64-pc-linux-gnu"

%class.params_ref = type { ptr }
%class.anon = type { i8 }

@.str = private unnamed_addr constant [15 x i8] c"pull_cheap_ite\00", align 1
@.str.1 = private unnamed_addr constant [10 x i8] c"local_ctx\00", align 1
@.str.2 = private unnamed_addr constant [16 x i8] c"local_ctx_limit\00", align 1

; Function Attrs: inlinehint mustprogress nounwind uwtable
define linkonce_odr hidden noundef ptr @_ZZ19mk_solve_eqs_tacticR11ast_managerRK10params_refENKUlRT_RT0_RT1_E_cvPFP25dependent_expr_simplifierS5_S7_S9_EIS_S2_20dependent_expr_stateEEv(ptr noundef nonnull align 1 dereferenceable(1) %0) #8 comdat align 2 {
  %2 = alloca ptr, align 8
  store ptr %0, ptr %2, align 8, !tbaa !13
  ret ptr @_ZZ19mk_solve_eqs_tacticR11ast_managerRK10params_refENUlRT_RT0_RT1_E_8__invokeIS_S2_20dependent_expr_stateEEP25dependent_expr_simplifierS5_S7_S9_
}

; Function Attrs: inlinehint mustprogress uwtable
define linkonce_odr hidden noundef ptr @_Z19mk_solve_eqs_tacticR11ast_managerRK10params_ref(ptr noundef nonnull align 8 dereferenceable(976) %0, ptr noundef nonnull align 8 dereferenceable(8) %1) #7 comdat {
  %3 = alloca ptr, align 8
  %4 = alloca ptr, align 8
  %5 = alloca %class.anon, align 1
  store ptr %0, ptr %3, align 8, !tbaa !3
  store ptr %1, ptr %4, align 8, !tbaa !8
  %6 = call noalias noundef ptr @_ZN6memory8allocateEm(i64 noundef 352)
  %7 = load ptr, ptr %3, align 8, !tbaa !3
  %8 = load ptr, ptr %4, align 8, !tbaa !8
  call void @llvm.lifetime.start.p0(i64 1, ptr %5) #3
  %9 = call noundef ptr @_ZZ19mk_solve_eqs_tacticR11ast_managerRK10params_refENKUlRT_RT0_RT1_E_cvPFP25dependent_expr_simplifierS5_S7_S9_EIS_S2_20dependent_expr_stateEEv(ptr noundef nonnull align 1 dereferenceable(1) %5) #3
  call void @_ZN27dependent_expr_state_tacticC2ER11ast_managerRK10params_refPFP25dependent_expr_simplifierS1_S4_R20dependent_expr_stateE(ptr noundef nonnull align 8 dereferenceable(345) %6, ptr noundef nonnull align 8 dereferenceable(976) %7, ptr noundef nonnull align 8 dereferenceable(8) %8, ptr noundef %9)
  call void @llvm.lifetime.end.p0(i64 1, ptr %5) #3
  ret ptr %6
}

; Function Attrs: mustprogress nounwind uwtable
define linkonce_odr hidden void @_ZN10params_refC2Ev(ptr noundef nonnull align 8 dereferenceable(8) %0) unnamed_addr #6 comdat align 2 {
  %2 = alloca ptr, align 8
  store ptr %0, ptr %2, align 8, !tbaa !8
  %3 = load ptr, ptr %2, align 8
  %4 = getelementptr inbounds nuw %class.params_ref, ptr %3, i32 0, i32 0
  store ptr null, ptr %4, align 8, !tbaa !10
  ret void
}

; Function Attrs: mustprogress uwtable
define hidden noundef ptr @_Z14mk_qfuf_tacticR11ast_managerRK10params_ref(ptr noundef nonnull align 8 dereferenceable(976) %0, ptr noundef nonnull align 8 dereferenceable(8) %1) #4 personality ptr @__gxx_personality_v0 {
  %3 = alloca ptr, align 8
  %4 = alloca ptr, align 8
  %5 = alloca %class.params_ref, align 8
  %6 = alloca ptr, align 8
  %7 = alloca i32, align 4
  store ptr %0, ptr %3, align 8, !tbaa !3
  store ptr %1, ptr %4, align 8, !tbaa !8
  call void @llvm.lifetime.start.p0(i64 8, ptr %5) #3
  call void @_ZN10params_refC2Ev(ptr noundef nonnull align 8 dereferenceable(8) %5) #3
  invoke void @_ZN10params_ref8set_boolEPKcb(ptr noundef nonnull align 8 dereferenceable(8) %5, ptr noundef @.str, i1 noundef zeroext true)
          to label %8 unwind label %43

8:                                                ; preds = %2
  invoke void @_ZN10params_ref8set_boolEPKcb(ptr noundef nonnull align 8 dereferenceable(8) %5, ptr noundef @.str.1, i1 noundef zeroext true)
          to label %9 unwind label %43

9:                                                ; preds = %8
  invoke void @_ZN10params_ref8set_uintEPKcj(ptr noundef nonnull align 8 dereferenceable(8) %5, ptr noundef @.str.2, i32 noundef 10000000)
          to label %10 unwind label %43

10:                                               ; preds = %9
  %11 = load ptr, ptr %3, align 8, !tbaa !3
  %12 = load ptr, ptr %4, align 8, !tbaa !8
  %13 = invoke noundef ptr @_Z18mk_simplify_tacticR11ast_managerRK10params_ref(ptr noundef nonnull align 8 dereferenceable(976) %11, ptr noundef nonnull align 8 dereferenceable(8) %12)
          to label %14 unwind label %43

14:                                               ; preds = %10
  %15 = load ptr, ptr %3, align 8, !tbaa !3
  %16 = load ptr, ptr %4, align 8, !tbaa !8
  %17 = invoke noundef ptr @_Z26mk_propagate_values_tacticR11ast_managerRK10params_ref(ptr noundef nonnull align 8 dereferenceable(976) %15, ptr noundef nonnull align 8 dereferenceable(8) %16)
          to label %18 unwind label %43

18:                                               ; preds = %14
  %19 = load ptr, ptr %3, align 8, !tbaa !3
  %20 = load ptr, ptr %4, align 8, !tbaa !8
  %21 = invoke noundef ptr @_Z19mk_solve_eqs_tacticR11ast_managerRK10params_ref(ptr noundef nonnull align 8 dereferenceable(976) %19, ptr noundef nonnull align 8 dereferenceable(8) %20)
          to label %22 unwind label %43

22:                                               ; preds = %18
  %23 = load ptr, ptr %3, align 8, !tbaa !3
  %24 = load ptr, ptr %4, align 8, !tbaa !8
  %25 = invoke noundef ptr @_Z18mk_simplify_tacticR11ast_managerRK10params_ref(ptr noundef nonnull align 8 dereferenceable(976) %23, ptr noundef nonnull align 8 dereferenceable(8) %24)
          to label %26 unwind label %43

26:                                               ; preds = %22
  %27 = invoke noundef ptr @_Z12using_paramsP6tacticRK10params_ref(ptr noundef %25, ptr noundef nonnull align 8 dereferenceable(8) %5)
          to label %28 unwind label %43

28:                                               ; preds = %26
  %29 = load ptr, ptr %3, align 8, !tbaa !3
  %30 = load ptr, ptr %4, align 8, !tbaa !8
  %31 = invoke noundef ptr @_Z25mk_symmetry_reduce_tacticR11ast_managerRK10params_ref(ptr noundef nonnull align 8 dereferenceable(976) %29, ptr noundef nonnull align 8 dereferenceable(8) %30)
          to label %32 unwind label %43

32:                                               ; preds = %28
  %33 = invoke noundef ptr @_Z17if_no_unsat_coresP6tactic(ptr noundef %31)
          to label %34 unwind label %43

34:                                               ; preds = %32
  %35 = invoke noundef ptr @_Z12if_no_proofsP6tactic(ptr noundef %33)
          to label %36 unwind label %43

36:                                               ; preds = %34
  %37 = load ptr, ptr %3, align 8, !tbaa !3
  %38 = load ptr, ptr %4, align 8, !tbaa !8
  %39 = invoke noundef ptr @_Z13mk_smt_tacticR11ast_managerRK10params_ref(ptr noundef nonnull align 8 dereferenceable(976) %37, ptr noundef nonnull align 8 dereferenceable(8) %38)
          to label %40 unwind label %43

40:                                               ; preds = %36
  %41 = invoke noundef ptr @_Z8and_thenP6tacticS0_S0_S0_S0_S0_(ptr noundef %13, ptr noundef %17, ptr noundef %21, ptr noundef %27, ptr noundef %35, ptr noundef %39)
          to label %42 unwind label %43

42:                                               ; preds = %40
  call void @_ZN10params_refD1Ev(ptr noundef nonnull align 8 dereferenceable(8) %5) #3
  call void @llvm.lifetime.end.p0(i64 8, ptr %5) #3
  ret ptr %41

43:                                               ; preds = %40, %36, %34, %32, %28, %26, %22, %18, %14, %10, %9, %8, %2
  %44 = landingpad { ptr, i32 }
          cleanup
  %45 = extractvalue { ptr, i32 } %44, 0
  store ptr %45, ptr %6, align 8
  %46 = extractvalue { ptr, i32 } %44, 1
  store i32 %46, ptr %7, align 4
  call void @_ZN10params_refD1Ev(ptr noundef nonnull align 8 dereferenceable(8) %5) #3
  call void @llvm.lifetime.end.p0(i64 8, ptr %5) #3
  br label %47

47:                                               ; preds = %43
  %48 = load ptr, ptr %6, align 8
  %49 = load i32, ptr %7, align 4
  %50 = insertvalue { ptr, i32 } poison, ptr %48, 0
  %51 = insertvalue { ptr, i32 } %50, i32 %49, 1
  resume { ptr, i32 } %51
}