; Function Attrs: mustprogress uwtable
define hidden noundef ptr @_Z14mk_qfuf_tacticR11ast_managerRK10params_ref(ptr noundef nonnull align 8 dereferenceable(976) %0, ptr noundef nonnull align 8 dereferenceable(8) %1) local_unnamed_addr #3 personality ptr @__gxx_personality_v0 {
  %3 = alloca %class.params_ref, align 8
  call void @llvm.lifetime.start.p0(i64 8, ptr nonnull %3) #22
  store ptr null, ptr %3, align 8, !tbaa !3
  invoke void @_ZN10params_ref8set_boolEPKcb(ptr noundef nonnull align 8 dereferenceable(8) %3, ptr noundef nonnull @.str, i1 noundef zeroext true)
          to label %4 unwind label %26

4:                                                ; preds = %2
  invoke void @_ZN10params_ref8set_boolEPKcb(ptr noundef nonnull align 8 dereferenceable(8) %3, ptr noundef nonnull @.str.1, i1 noundef zeroext true)
          to label %5 unwind label %26

5:                                                ; preds = %4
  invoke void @_ZN10params_ref8set_uintEPKcj(ptr noundef nonnull align 8 dereferenceable(8) %3, ptr noundef nonnull @.str.2, i32 noundef 10000000)
          to label %6 unwind label %26

6:                                                ; preds = %5
  %7 = invoke noundef ptr @_Z18mk_simplify_tacticR11ast_managerRK10params_ref(ptr noundef nonnull align 8 dereferenceable(976) %0, ptr noundef nonnull align 8 dereferenceable(8) %1)
          to label %8 unwind label %26

8:                                                ; preds = %6
  %9 = invoke noundef ptr @_Z26mk_propagate_values_tacticR11ast_managerRK10params_ref(ptr noundef nonnull align 8 dereferenceable(976) %0, ptr noundef nonnull align 8 dereferenceable(8) %1)
          to label %10 unwind label %26

10:                                               ; preds = %8
  %11 = invoke noalias noundef ptr @_ZN6memory8allocateEm(i64 noundef 352)
          to label %.noexc unwind label %26

.noexc:                                           ; preds = %10
  invoke void @_ZN27dependent_expr_state_tacticC2ER11ast_managerRK10params_refPFP25dependent_expr_simplifierS1_S4_R20dependent_expr_stateE(ptr noundef nonnull align 8 dereferenceable(345) %11, ptr noundef nonnull align 8 dereferenceable(976) %0, ptr noundef nonnull align 8 dereferenceable(8) %1, ptr noundef nonnull @_ZZ19mk_solve_eqs_tacticR11ast_managerRK10params_refENUlRT_RT0_RT1_E_8__invokeIS_S2_20dependent_expr_stateEEP25dependent_expr_simplifierS5_S7_S9_)
          to label %_Z19mk_solve_eqs_tacticR11ast_managerRK10params_ref.exit unwind label %26

_Z19mk_solve_eqs_tacticR11ast_managerRK10params_ref.exit: ; preds = %.noexc
  %12 = invoke noundef ptr @_Z18mk_simplify_tacticR11ast_managerRK10params_ref(ptr noundef nonnull align 8 dereferenceable(976) %0, ptr noundef nonnull align 8 dereferenceable(8) %1)
          to label %13 unwind label %26

13:                                               ; preds = %_Z19mk_solve_eqs_tacticR11ast_managerRK10params_ref.exit
  %14 = invoke noundef ptr @_Z12using_paramsP6tacticRK10params_ref(ptr noundef %12, ptr noundef nonnull align 8 dereferenceable(8) %3)
          to label %15 unwind label %26

15:                                               ; preds = %13
  %16 = invoke noundef ptr @_Z25mk_symmetry_reduce_tacticR11ast_managerRK10params_ref(ptr noundef nonnull align 8 dereferenceable(976) %0, ptr noundef nonnull align 8 dereferenceable(8) %1)
          to label %17 unwind label %26

17:                                               ; preds = %15
  %18 = invoke noundef ptr @_Z17if_no_unsat_coresP6tactic(ptr noundef %16)
          to label %19 unwind label %26

19:                                               ; preds = %17
  %20 = invoke noundef ptr @_Z12if_no_proofsP6tactic(ptr noundef %18)
          to label %21 unwind label %26

21:                                               ; preds = %19
  %22 = invoke noundef ptr @_Z13mk_smt_tacticR11ast_managerRK10params_ref(ptr noundef nonnull align 8 dereferenceable(976) %0, ptr noundef nonnull align 8 dereferenceable(8) %1)
          to label %23 unwind label %26

23:                                               ; preds = %21
  %24 = invoke noundef ptr @_Z8and_thenP6tacticS0_S0_S0_S0_S0_(ptr noundef %7, ptr noundef %9, ptr noundef nonnull %11, ptr noundef %14, ptr noundef %20, ptr noundef %22)
          to label %25 unwind label %26

25:                                               ; preds = %23
  call void @_ZN10params_refD1Ev(ptr noundef nonnull align 8 dereferenceable(8) %3) #22
  call void @llvm.lifetime.end.p0(i64 8, ptr nonnull %3) #22
  ret ptr %24

26:                                               ; preds = %.noexc, %10, %23, %21, %19, %17, %15, %13, %_Z19mk_solve_eqs_tacticR11ast_managerRK10params_ref.exit, %8, %6, %5, %4, %2
  %27 = landingpad { ptr, i32 }
          cleanup
  call void @_ZN10params_refD1Ev(ptr noundef nonnull align 8 dereferenceable(8) %3) #22
  call void @llvm.lifetime.end.p0(i64 8, ptr nonnull %3) #22
  resume { ptr, i32 } %27
}